; Function Attrs: nounwind sspstrong uwtable
define internal fastcc range(i32 0, 2) i32 @eq(i64 noundef %0, i64 noundef %1) unnamed_addr #1 {
  %3 = and i64 %0, 1
  %4 = and i64 %3, %1
  %or.cond.not = icmp eq i64 %4, 0
  br i1 %or.cond.not, label %7, label %5

5:                                                ; preds = %2
  %6 = icmp eq i64 %0, %1
  br label %11

7:                                                ; preds = %2
  %8 = tail call i64 (i64, i64, i32, ...) @rb_funcall(i64 noundef %0, i64 noundef 140, i32 noundef 1, i64 noundef %1) #21
  %9 = and i64 %8, -5
  %10 = icmp ne i64 %9, 0
  br label %11

11:                                               ; preds = %7, %5
  %.0.in = phi i1 [ %6, %5 ], [ %10, %7 ]
  %.0 = zext i1 %.0.in to i32
  ret i32 %.0
}